target datalayout = "e-m:e-p270:32:32-p271:32:32-p272:64:64-i64:64-i128:128-f80:128-n8:16:32:64-S128"
target triple = "x86_64-pc-linux-gnu"

%struct.H5HF_huge_bt2_ctx_t = type { i8, i8 }
%struct.H5HF_huge_bt2_filt_dir_rec_t = type { i64, i64, i32, i64 }

@H5HF_init_g = external global i8, align 1
@H5_libterm_g = external global i8, align 1

; Function Attrs: nounwind uwtable
define internal i32 @H5HF__huge_bt2_filt_dir_decode(ptr noundef %0, ptr noundef %1, ptr noundef %2) #0 {
  %4 = alloca ptr, align 8
  %5 = alloca ptr, align 8
  %6 = alloca ptr, align 8
  %7 = alloca ptr, align 8
  %8 = alloca ptr, align 8
  %9 = alloca i64, align 8
  %10 = alloca i64, align 8
  store ptr %0, ptr %4, align 8, !tbaa !27
  store ptr %1, ptr %5, align 8, !tbaa !3
  store ptr %2, ptr %6, align 8, !tbaa !3
  call void @llvm.lifetime.start.p0(i64 8, ptr %7) #6
  %11 = load ptr, ptr %6, align 8, !tbaa !3
  store ptr %11, ptr %7, align 8, !tbaa !13
  call void @llvm.lifetime.start.p0(i64 8, ptr %8) #6
  %12 = load ptr, ptr %5, align 8, !tbaa !3
  store ptr %12, ptr %8, align 8, !tbaa !71
  %13 = load i8, ptr @H5HF_init_g, align 1, !tbaa !9, !range !11, !noundef !12
  %14 = trunc i8 %13 to i1
  br i1 %14, label %19, label %15

15:                                               ; preds = %3
  %16 = load i8, ptr @H5_libterm_g, align 1, !tbaa !9, !range !11, !noundef !12
  %17 = trunc i8 %16 to i1
  %18 = xor i1 %17, true
  br label %19

19:                                               ; preds = %15, %3
  %20 = phi i1 [ true, %3 ], [ %18, %15 ]
  %21 = xor i1 %20, true
  %22 = xor i1 %21, true
  %23 = zext i1 %22 to i32
  %24 = sext i32 %23 to i64
  %25 = call i64 @llvm.expect.i64(i64 %24, i64 1)
  %26 = icmp ne i64 %25, 0
  br i1 %26, label %27, label %306

27:                                               ; preds = %19
  %28 = load ptr, ptr %7, align 8, !tbaa !13
  %29 = getelementptr inbounds nuw %struct.H5HF_huge_bt2_ctx_t, ptr %28, i32 0, i32 1
  %30 = load i8, ptr %29, align 1, !tbaa !17
  %31 = zext i8 %30 to i64
  %32 = load ptr, ptr %8, align 8, !tbaa !71
  %33 = getelementptr inbounds nuw %struct.H5HF_huge_bt2_filt_dir_rec_t, ptr %32, i32 0, i32 0
  call void @H5F_addr_decode_len(i64 noundef %31, ptr noundef %4, ptr noundef %33)
  br label %34

34:                                               ; preds = %27
  %35 = load ptr, ptr %7, align 8, !tbaa !13
  %36 = getelementptr inbounds nuw %struct.H5HF_huge_bt2_ctx_t, ptr %35, i32 0, i32 0
  %37 = load i8, ptr %36, align 1, !tbaa !19
  %38 = zext i8 %37 to i32
  switch i32 %38, label %144 [
    i32 4, label %39
    i32 8, label %88
    i32 2, label %117
  ]

39:                                               ; preds = %34
  br label %40

40:                                               ; preds = %39
  %41 = load ptr, ptr %4, align 8, !tbaa !27
  %42 = load i8, ptr %41, align 1, !tbaa !33
  %43 = zext i8 %42 to i32
  %44 = and i32 %43, 255
  %45 = zext i32 %44 to i64
  %46 = load ptr, ptr %8, align 8, !tbaa !71
  %47 = getelementptr inbounds nuw %struct.H5HF_huge_bt2_filt_dir_rec_t, ptr %46, i32 0, i32 1
  store i64 %45, ptr %47, align 8, !tbaa !75
  %48 = load ptr, ptr %4, align 8, !tbaa !27
  %49 = getelementptr inbounds nuw i8, ptr %48, i32 1
  store ptr %49, ptr %4, align 8, !tbaa !27
  %50 = load ptr, ptr %4, align 8, !tbaa !27
  %51 = load i8, ptr %50, align 1, !tbaa !33
  %52 = zext i8 %51 to i32
  %53 = and i32 %52, 255
  %54 = shl i32 %53, 8
  %55 = zext i32 %54 to i64
  %56 = load ptr, ptr %8, align 8, !tbaa !71
  %57 = getelementptr inbounds nuw %struct.H5HF_huge_bt2_filt_dir_rec_t, ptr %56, i32 0, i32 1
  %58 = load i64, ptr %57, align 8, !tbaa !75
  %59 = or i64 %58, %55
  store i64 %59, ptr %57, align 8, !tbaa !75
  %60 = load ptr, ptr %4, align 8, !tbaa !27
  %61 = getelementptr inbounds nuw i8, ptr %60, i32 1
  store ptr %61, ptr %4, align 8, !tbaa !27
  %62 = load ptr, ptr %4, align 8, !tbaa !27
  %63 = load i8, ptr %62, align 1, !tbaa !33
  %64 = zext i8 %63 to i32
  %65 = and i32 %64, 255
  %66 = shl i32 %65, 16
  %67 = zext i32 %66 to i64
  %68 = load ptr, ptr %8, align 8, !tbaa !71
  %69 = getelementptr inbounds nuw %struct.H5HF_huge_bt2_filt_dir_rec_t, ptr %68, i32 0, i32 1
  %70 = load i64, ptr %69, align 8, !tbaa !75
  %71 = or i64 %70, %67
  store i64 %71, ptr %69, align 8, !tbaa !75
  %72 = load ptr, ptr %4, align 8, !tbaa !27
  %73 = getelementptr inbounds nuw i8, ptr %72, i32 1
  store ptr %73, ptr %4, align 8, !tbaa !27
  %74 = load ptr, ptr %4, align 8, !tbaa !27
  %75 = load i8, ptr %74, align 1, !tbaa !33
  %76 = zext i8 %75 to i32
  %77 = and i32 %76, 255
  %78 = shl i32 %77, 24
  %79 = zext i32 %78 to i64
  %80 = load ptr, ptr %8, align 8, !tbaa !71
  %81 = getelementptr inbounds nuw %struct.H5HF_huge_bt2_filt_dir_rec_t, ptr %80, i32 0, i32 1
  %82 = load i64, ptr %81, align 8, !tbaa !75
  %83 = or i64 %82, %79
  store i64 %83, ptr %81, align 8, !tbaa !75
  %84 = load ptr, ptr %4, align 8, !tbaa !27
  %85 = getelementptr inbounds nuw i8, ptr %84, i32 1
  store ptr %85, ptr %4, align 8, !tbaa !27
  br label %86

86:                                               ; preds = %40
  br label %87

87:                                               ; preds = %86
  br label %145

88:                                               ; preds = %34
  br label %89

89:                                               ; preds = %88
  call void @llvm.lifetime.start.p0(i64 8, ptr %9) #6
  %90 = load ptr, ptr %8, align 8, !tbaa !71
  %91 = getelementptr inbounds nuw %struct.H5HF_huge_bt2_filt_dir_rec_t, ptr %90, i32 0, i32 1
  store i64 0, ptr %91, align 8, !tbaa !75
  %92 = load ptr, ptr %4, align 8, !tbaa !27
  %93 = getelementptr inbounds i8, ptr %92, i64 8
  store ptr %93, ptr %4, align 8, !tbaa !27
  store i64 0, ptr %9, align 8, !tbaa !15
  br label %94

94:                                               ; preds = %109, %89
  %95 = load i64, ptr %9, align 8, !tbaa !15
  %96 = icmp ult i64 %95, 8
  br i1 %96, label %97, label %112

97:                                               ; preds = %94
  %98 = load ptr, ptr %8, align 8, !tbaa !71
  %99 = getelementptr inbounds nuw %struct.H5HF_huge_bt2_filt_dir_rec_t, ptr %98, i32 0, i32 1
  %100 = load i64, ptr %99, align 8, !tbaa !75
  %101 = shl i64 %100, 8
  %102 = load ptr, ptr %4, align 8, !tbaa !27
  %103 = getelementptr inbounds i8, ptr %102, i32 -1
  store ptr %103, ptr %4, align 8, !tbaa !27
  %104 = load i8, ptr %103, align 1, !tbaa !33
  %105 = zext i8 %104 to i64
  %106 = or i64 %101, %105
  %107 = load ptr, ptr %8, align 8, !tbaa !71
  %108 = getelementptr inbounds nuw %struct.H5HF_huge_bt2_filt_dir_rec_t, ptr %107, i32 0, i32 1
  store i64 %106, ptr %108, align 8, !tbaa !75
  br label %109

109:                                              ; preds = %97
  %110 = load i64, ptr %9, align 8, !tbaa !15
  %111 = add i64 %110, 1
  store i64 %111, ptr %9, align 8, !tbaa !15
  br label %94, !llvm.loop !82

112:                                              ; preds = %94
  %113 = load ptr, ptr %4, align 8, !tbaa !27
  %114 = getelementptr inbounds i8, ptr %113, i64 8
  store ptr %114, ptr %4, align 8, !tbaa !27
  call void @llvm.lifetime.end.p0(i64 8, ptr %9) #6
  br label %115

115:                                              ; preds = %112
  br label %116

116:                                              ; preds = %115
  br label %145

117:                                              ; preds = %34
  br label %118

118:                                              ; preds = %117
  %119 = load ptr, ptr %4, align 8, !tbaa !27
  %120 = load i8, ptr %119, align 1, !tbaa !33
  %121 = zext i8 %120 to i32
  %122 = and i32 %121, 255
  %123 = trunc i32 %122 to i16
  %124 = zext i16 %123 to i64
  %125 = load ptr, ptr %8, align 8, !tbaa !71
  %126 = getelementptr inbounds nuw %struct.H5HF_huge_bt2_filt_dir_rec_t, ptr %125, i32 0, i32 1
  store i64 %124, ptr %126, align 8, !tbaa !75
  %127 = load ptr, ptr %4, align 8, !tbaa !27
  %128 = getelementptr inbounds nuw i8, ptr %127, i32 1
  store ptr %128, ptr %4, align 8, !tbaa !27
  %129 = load ptr, ptr %4, align 8, !tbaa !27
  %130 = load i8, ptr %129, align 1, !tbaa !33
  %131 = zext i8 %130 to i32
  %132 = and i32 %131, 255
  %133 = shl i32 %132, 8
  %134 = trunc i32 %133 to i16
  %135 = zext i16 %134 to i64
  %136 = load ptr, ptr %8, align 8, !tbaa !71
  %137 = getelementptr inbounds nuw %struct.H5HF_huge_bt2_filt_dir_rec_t, ptr %136, i32 0, i32 1
  %138 = load i64, ptr %137, align 8, !tbaa !75
  %139 = or i64 %138, %135
  store i64 %139, ptr %137, align 8, !tbaa !75
  %140 = load ptr, ptr %4, align 8, !tbaa !27
  %141 = getelementptr inbounds nuw i8, ptr %140, i32 1
  store ptr %141, ptr %4, align 8, !tbaa !27
  br label %142

142:                                              ; preds = %118
  br label %143

143:                                              ; preds = %142
  br label %145

144:                                              ; preds = %34
  br label %145

145:                                              ; preds = %144, %143, %116, %87
  br label %146

146:                                              ; preds = %145
  br label %147

147:                                              ; preds = %146
  br label %148

148:                                              ; preds = %147
  %149 = load ptr, ptr %4, align 8, !tbaa !27
  %150 = load i8, ptr %149, align 1, !tbaa !33
  %151 = zext i8 %150 to i32
  %152 = and i32 %151, 255
  %153 = load ptr, ptr %8, align 8, !tbaa !71
  %154 = getelementptr inbounds nuw %struct.H5HF_huge_bt2_filt_dir_rec_t, ptr %153, i32 0, i32 2
  store i32 %152, ptr %154, align 8, !tbaa !78
  %155 = load ptr, ptr %4, align 8, !tbaa !27
  %156 = getelementptr inbounds nuw i8, ptr %155, i32 1
  store ptr %156, ptr %4, align 8, !tbaa !27
  %157 = load ptr, ptr %4, align 8, !tbaa !27
  %158 = load i8, ptr %157, align 1, !tbaa !33
  %159 = zext i8 %158 to i32
  %160 = and i32 %159, 255
  %161 = shl i32 %160, 8
  %162 = load ptr, ptr %8, align 8, !tbaa !71
  %163 = getelementptr inbounds nuw %struct.H5HF_huge_bt2_filt_dir_rec_t, ptr %162, i32 0, i32 2
  %164 = load i32, ptr %163, align 8, !tbaa !78
  %165 = or i32 %164, %161
  store i32 %165, ptr %163, align 8, !tbaa !78
  %166 = load ptr, ptr %4, align 8, !tbaa !27
  %167 = getelementptr inbounds nuw i8, ptr %166, i32 1
  store ptr %167, ptr %4, align 8, !tbaa !27
  %168 = load ptr, ptr %4, align 8, !tbaa !27
  %169 = load i8, ptr %168, align 1, !tbaa !33
  %170 = zext i8 %169 to i32
  %171 = and i32 %170, 255
  %172 = shl i32 %171, 16
  %173 = load ptr, ptr %8, align 8, !tbaa !71
  %174 = getelementptr inbounds nuw %struct.H5HF_huge_bt2_filt_dir_rec_t, ptr %173, i32 0, i32 2
  %175 = load i32, ptr %174, align 8, !tbaa !78
  %176 = or i32 %175, %172
  store i32 %176, ptr %174, align 8, !tbaa !78
  %177 = load ptr, ptr %4, align 8, !tbaa !27
  %178 = getelementptr inbounds nuw i8, ptr %177, i32 1
  store ptr %178, ptr %4, align 8, !tbaa !27
  %179 = load ptr, ptr %4, align 8, !tbaa !27
  %180 = load i8, ptr %179, align 1, !tbaa !33
  %181 = zext i8 %180 to i32
  %182 = and i32 %181, 255
  %183 = shl i32 %182, 24
  %184 = load ptr, ptr %8, align 8, !tbaa !71
  %185 = getelementptr inbounds nuw %struct.H5HF_huge_bt2_filt_dir_rec_t, ptr %184, i32 0, i32 2
  %186 = load i32, ptr %185, align 8, !tbaa !78
  %187 = or i32 %186, %183
  store i32 %187, ptr %185, align 8, !tbaa !78
  %188 = load ptr, ptr %4, align 8, !tbaa !27
  %189 = getelementptr inbounds nuw i8, ptr %188, i32 1
  store ptr %189, ptr %4, align 8, !tbaa !27
  br label %190

190:                                              ; preds = %148
  br label %191

191:                                              ; preds = %190
  br label %192

192:                                              ; preds = %191
  %193 = load ptr, ptr %7, align 8, !tbaa !13
  %194 = getelementptr inbounds nuw %struct.H5HF_huge_bt2_ctx_t, ptr %193, i32 0, i32 0
  %195 = load i8, ptr %194, align 1, !tbaa !19
  %196 = zext i8 %195 to i32
  switch i32 %196, label %302 [
    i32 4, label %197
    i32 8, label %246
    i32 2, label %275
  ]

197:                                              ; preds = %192
  br label %198

198:                                              ; preds = %197
  %199 = load ptr, ptr %4, align 8, !tbaa !27
  %200 = load i8, ptr %199, align 1, !tbaa !33
  %201 = zext i8 %200 to i32
  %202 = and i32 %201, 255
  %203 = zext i32 %202 to i64
  %204 = load ptr, ptr %8, align 8, !tbaa !71
  %205 = getelementptr inbounds nuw %struct.H5HF_huge_bt2_filt_dir_rec_t, ptr %204, i32 0, i32 3
  store i64 %203, ptr %205, align 8, !tbaa !79
  %206 = load ptr, ptr %4, align 8, !tbaa !27
  %207 = getelementptr inbounds nuw i8, ptr %206, i32 1
  store ptr %207, ptr %4, align 8, !tbaa !27
  %208 = load ptr, ptr %4, align 8, !tbaa !27
  %209 = load i8, ptr %208, align 1, !tbaa !33
  %210 = zext i8 %209 to i32
  %211 = and i32 %210, 255
  %212 = shl i32 %211, 8
  %213 = zext i32 %212 to i64
  %214 = load ptr, ptr %8, align 8, !tbaa !71
  %215 = getelementptr inbounds nuw %struct.H5HF_huge_bt2_filt_dir_rec_t, ptr %214, i32 0, i32 3
  %216 = load i64, ptr %215, align 8, !tbaa !79
  %217 = or i64 %216, %213
  store i64 %217, ptr %215, align 8, !tbaa !79
  %218 = load ptr, ptr %4, align 8, !tbaa !27
  %219 = getelementptr inbounds nuw i8, ptr %218, i32 1
  store ptr %219, ptr %4, align 8, !tbaa !27
  %220 = load ptr, ptr %4, align 8, !tbaa !27
  %221 = load i8, ptr %220, align 1, !tbaa !33
  %222 = zext i8 %221 to i32
  %223 = and i32 %222, 255
  %224 = shl i32 %223, 16
  %225 = zext i32 %224 to i64
  %226 = load ptr, ptr %8, align 8, !tbaa !71
  %227 = getelementptr inbounds nuw %struct.H5HF_huge_bt2_filt_dir_rec_t, ptr %226, i32 0, i32 3
  %228 = load i64, ptr %227, align 8, !tbaa !79
  %229 = or i64 %228, %225
  store i64 %229, ptr %227, align 8, !tbaa !79
  %230 = load ptr, ptr %4, align 8, !tbaa !27
  %231 = getelementptr inbounds nuw i8, ptr %230, i32 1
  store ptr %231, ptr %4, align 8, !tbaa !27
  %232 = load ptr, ptr %4, align 8, !tbaa !27
  %233 = load i8, ptr %232, align 1, !tbaa !33
  %234 = zext i8 %233 to i32
  %235 = and i32 %234, 255
  %236 = shl i32 %235, 24
  %237 = zext i32 %236 to i64
  %238 = load ptr, ptr %8, align 8, !tbaa !71
  %239 = getelementptr inbounds nuw %struct.H5HF_huge_bt2_filt_dir_rec_t, ptr %238, i32 0, i32 3
  %240 = load i64, ptr %239, align 8, !tbaa !79
  %241 = or i64 %240, %237
  store i64 %241, ptr %239, align 8, !tbaa !79
  %242 = load ptr, ptr %4, align 8, !tbaa !27
  %243 = getelementptr inbounds nuw i8, ptr %242, i32 1
  store ptr %243, ptr %4, align 8, !tbaa !27
  br label %244

244:                                              ; preds = %198
  br label %245

245:                                              ; preds = %244
  br label %303

246:                                              ; preds = %192
  br label %247

247:                                              ; preds = %246
  call void @llvm.lifetime.start.p0(i64 8, ptr %10) #6
  %248 = load ptr, ptr %8, align 8, !tbaa !71
  %249 = getelementptr inbounds nuw %struct.H5HF_huge_bt2_filt_dir_rec_t, ptr %248, i32 0, i32 3
  store i64 0, ptr %249, align 8, !tbaa !79
  %250 = load ptr, ptr %4, align 8, !tbaa !27
  %251 = getelementptr inbounds i8, ptr %250, i64 8
  store ptr %251, ptr %4, align 8, !tbaa !27
  store i64 0, ptr %10, align 8, !tbaa !15
  br label %252

252:                                              ; preds = %267, %247
  %253 = load i64, ptr %10, align 8, !tbaa !15
  %254 = icmp ult i64 %253, 8
  br i1 %254, label %255, label %270

255:                                              ; preds = %252
  %256 = load ptr, ptr %8, align 8, !tbaa !71
  %257 = getelementptr inbounds nuw %struct.H5HF_huge_bt2_filt_dir_rec_t, ptr %256, i32 0, i32 3
  %258 = load i64, ptr %257, align 8, !tbaa !79
  %259 = shl i64 %258, 8
  %260 = load ptr, ptr %4, align 8, !tbaa !27
  %261 = getelementptr inbounds i8, ptr %260, i32 -1
  store ptr %261, ptr %4, align 8, !tbaa !27
  %262 = load i8, ptr %261, align 1, !tbaa !33
  %263 = zext i8 %262 to i64
  %264 = or i64 %259, %263
  %265 = load ptr, ptr %8, align 8, !tbaa !71
  %266 = getelementptr inbounds nuw %struct.H5HF_huge_bt2_filt_dir_rec_t, ptr %265, i32 0, i32 3
  store i64 %264, ptr %266, align 8, !tbaa !79
  br label %267

267:                                              ; preds = %255
  %268 = load i64, ptr %10, align 8, !tbaa !15
  %269 = add i64 %268, 1
  store i64 %269, ptr %10, align 8, !tbaa !15
  br label %252, !llvm.loop !83

270:                                              ; preds = %252
  %271 = load ptr, ptr %4, align 8, !tbaa !27
  %272 = getelementptr inbounds i8, ptr %271, i64 8
  store ptr %272, ptr %4, align 8, !tbaa !27
  call void @llvm.lifetime.end.p0(i64 8, ptr %10) #6
  br label %273

273:                                              ; preds = %270
  br label %274

274:                                              ; preds = %273
  br label %303

275:                                              ; preds = %192
  br label %276

276:                                              ; preds = %275
  %277 = load ptr, ptr %4, align 8, !tbaa !27
  %278 = load i8, ptr %277, align 1, !tbaa !33
  %279 = zext i8 %278 to i32
  %280 = and i32 %279, 255
  %281 = trunc i32 %280 to i16
  %282 = zext i16 %281 to i64
  %283 = load ptr, ptr %8, align 8, !tbaa !71
  %284 = getelementptr inbounds nuw %struct.H5HF_huge_bt2_filt_dir_rec_t, ptr %283, i32 0, i32 3
  store i64 %282, ptr %284, align 8, !tbaa !79
  %285 = load ptr, ptr %4, align 8, !tbaa !27
  %286 = getelementptr inbounds nuw i8, ptr %285, i32 1
  store ptr %286, ptr %4, align 8, !tbaa !27
  %287 = load ptr, ptr %4, align 8, !tbaa !27
  %288 = load i8, ptr %287, align 1, !tbaa !33
  %289 = zext i8 %288 to i32
  %290 = and i32 %289, 255
  %291 = shl i32 %290, 8
  %292 = trunc i32 %291 to i16
  %293 = zext i16 %292 to i64
  %294 = load ptr, ptr %8, align 8, !tbaa !71
  %295 = getelementptr inbounds nuw %struct.H5HF_huge_bt2_filt_dir_rec_t, ptr %294, i32 0, i32 3
  %296 = load i64, ptr %295, align 8, !tbaa !79
  %297 = or i64 %296, %293
  store i64 %297, ptr %295, align 8, !tbaa !79
  %298 = load ptr, ptr %4, align 8, !tbaa !27
  %299 = getelementptr inbounds nuw i8, ptr %298, i32 1
  store ptr %299, ptr %4, align 8, !tbaa !27
  br label %300

300:                                              ; preds = %276
  br label %301

301:                                              ; preds = %300
  br label %303

302:                                              ; preds = %192
  br label %303

303:                                              ; preds = %302, %301, %274, %245
  br label %304

304:                                              ; preds = %303
  br label %305

305:                                              ; preds = %304
  br label %306

306:                                              ; preds = %305, %19
  call void @llvm.lifetime.end.p0(i64 8, ptr %8) #6
  call void @llvm.lifetime.end.p0(i64 8, ptr %7) #6
  ret i32 0
}