; Function Attrs: nounwind uwtable
define internal noundef i32 @H5HF__huge_bt2_filt_dir_decode(ptr noundef %0, ptr noundef %1, ptr noundef readonly captures(none) %2) #0 {
  %4 = alloca ptr, align 8
  store ptr %0, ptr %4, align 8, !tbaa !20
  %5 = load i8, ptr @H5HF_init_g, align 1, !tbaa !3, !range !7, !noundef !8
  %6 = trunc nuw i8 %5 to i1
  %7 = load i8, ptr @H5_libterm_g, align 1, !range !7
  %8 = trunc nuw i8 %7 to i1
  %9 = xor i1 %8, true
  %10 = select i1 %6, i1 true, i1 %9
  br i1 %10, label %11, label %.loopexit, !prof !9

11:                                               ; preds = %3
  %12 = getelementptr inbounds nuw i8, ptr %2, i64 1
  %13 = load i8, ptr %12, align 1, !tbaa !12
  %14 = zext i8 %13 to i64
  call void @H5F_addr_decode_len(i64 noundef %14, ptr noundef nonnull %4, ptr noundef %1) #6
  %15 = load i8, ptr %2, align 1, !tbaa !14
  switch i8 %15, label %._crit_edge [
    i8 4, label %16
    i8 8, label %37
    i8 2, label %52
  ]

._crit_edge:                                      ; preds = %11
  %.pre = load ptr, ptr %4, align 8, !tbaa !20
  br label %63

16:                                               ; preds = %11
  %17 = load ptr, ptr %4, align 8, !tbaa !20
  %18 = load i8, ptr %17, align 1, !tbaa !25
  %19 = zext i8 %18 to i64
  %20 = getelementptr inbounds nuw i8, ptr %1, i64 8
  store i64 %19, ptr %20, align 8, !tbaa !53
  %21 = getelementptr inbounds nuw i8, ptr %17, i64 1
  store ptr %21, ptr %4, align 8, !tbaa !20
  %22 = load i8, ptr %21, align 1, !tbaa !25
  %23 = zext i8 %22 to i64
  %24 = shl nuw nsw i64 %23, 8
  %25 = or disjoint i64 %24, %19
  store i64 %25, ptr %20, align 8, !tbaa !53
  %26 = getelementptr inbounds nuw i8, ptr %17, i64 2
  store ptr %26, ptr %4, align 8, !tbaa !20
  %27 = load i8, ptr %26, align 1, !tbaa !25
  %28 = zext i8 %27 to i64
  %29 = shl nuw nsw i64 %28, 16
  %30 = or disjoint i64 %29, %25
  store i64 %30, ptr %20, align 8, !tbaa !53
  %31 = getelementptr inbounds nuw i8, ptr %17, i64 3
  store ptr %31, ptr %4, align 8, !tbaa !20
  %32 = load i8, ptr %31, align 1, !tbaa !25
  %33 = zext i8 %32 to i64
  %34 = shl nuw nsw i64 %33, 24
  %35 = or disjoint i64 %34, %30
  store i64 %35, ptr %20, align 8, !tbaa !53
  %36 = getelementptr inbounds nuw i8, ptr %17, i64 4
  store ptr %36, ptr %4, align 8, !tbaa !20
  br label %63

37:                                               ; preds = %11
  %38 = getelementptr inbounds nuw i8, ptr %1, i64 8
  store i64 0, ptr %38, align 8, !tbaa !53
  %39 = load ptr, ptr %4, align 8, !tbaa !20
  %40 = getelementptr inbounds nuw i8, ptr %39, i64 8
  br label %41

41:                                               ; preds = %37, %41
  %.03133 = phi i64 [ 0, %37 ], [ %49, %41 ]
  %42 = phi i64 [ 0, %37 ], [ %48, %41 ]
  %43 = phi ptr [ %40, %37 ], [ %45, %41 ]
  %44 = shl i64 %42, 8
  %45 = getelementptr inbounds i8, ptr %43, i64 -1
  store ptr %45, ptr %4, align 8, !tbaa !20
  %46 = load i8, ptr %45, align 1, !tbaa !25
  %47 = zext i8 %46 to i64
  %48 = or disjoint i64 %44, %47
  store i64 %48, ptr %38, align 8, !tbaa !53
  %49 = add nuw nsw i64 %.03133, 1
  %exitcond.not = icmp eq i64 %49, 8
  br i1 %exitcond.not, label %50, label %41, !llvm.loop !58

50:                                               ; preds = %41
  %51 = getelementptr inbounds nuw i8, ptr %43, i64 7
  store ptr %51, ptr %4, align 8, !tbaa !20
  br label %63

52:                                               ; preds = %11
  %53 = load ptr, ptr %4, align 8, !tbaa !20
  %54 = load i8, ptr %53, align 1, !tbaa !25
  %55 = zext i8 %54 to i64
  %56 = getelementptr inbounds nuw i8, ptr %1, i64 8
  store i64 %55, ptr %56, align 8, !tbaa !53
  %57 = getelementptr inbounds nuw i8, ptr %53, i64 1
  store ptr %57, ptr %4, align 8, !tbaa !20
  %58 = load i8, ptr %57, align 1, !tbaa !25
  %59 = zext i8 %58 to i64
  %60 = shl nuw nsw i64 %59, 8
  %61 = or disjoint i64 %60, %55
  store i64 %61, ptr %56, align 8, !tbaa !53
  %62 = getelementptr inbounds nuw i8, ptr %53, i64 2
  store ptr %62, ptr %4, align 8, !tbaa !20
  br label %63

63:                                               ; preds = %._crit_edge, %16, %50, %52
  %64 = phi ptr [ %.pre, %._crit_edge ], [ %36, %16 ], [ %51, %50 ], [ %62, %52 ]
  %65 = load i8, ptr %64, align 1, !tbaa !25
  %66 = zext i8 %65 to i32
  %67 = getelementptr inbounds nuw i8, ptr %1, i64 16
  store i32 %66, ptr %67, align 8, !tbaa !55
  %68 = getelementptr inbounds nuw i8, ptr %64, i64 1
  store ptr %68, ptr %4, align 8, !tbaa !20
  %69 = load i8, ptr %68, align 1, !tbaa !25
  %70 = zext i8 %69 to i32
  %71 = shl nuw nsw i32 %70, 8
  %72 = or disjoint i32 %71, %66
  store i32 %72, ptr %67, align 8, !tbaa !55
  %73 = getelementptr inbounds nuw i8, ptr %64, i64 2
  store ptr %73, ptr %4, align 8, !tbaa !20
  %74 = load i8, ptr %73, align 1, !tbaa !25
  %75 = zext i8 %74 to i32
  %76 = shl nuw nsw i32 %75, 16
  %77 = or disjoint i32 %76, %72
  store i32 %77, ptr %67, align 8, !tbaa !55
  %78 = getelementptr inbounds nuw i8, ptr %64, i64 3
  store ptr %78, ptr %4, align 8, !tbaa !20
  %79 = load i8, ptr %78, align 1, !tbaa !25
  %80 = zext i8 %79 to i32
  %81 = shl nuw i32 %80, 24
  %82 = or disjoint i32 %81, %77
  store i32 %82, ptr %67, align 8, !tbaa !55
  %83 = getelementptr inbounds nuw i8, ptr %64, i64 4
  store ptr %83, ptr %4, align 8, !tbaa !20
  switch i8 %15, label %.loopexit [
    i8 4, label %84
    i8 8, label %103
    i8 2, label %115
  ]

84:                                               ; preds = %63
  %85 = load i8, ptr %83, align 1, !tbaa !25
  %86 = zext i8 %85 to i64
  %87 = getelementptr inbounds nuw i8, ptr %1, i64 24
  store i64 %86, ptr %87, align 8, !tbaa !56
  %88 = getelementptr inbounds nuw i8, ptr %64, i64 5
  store ptr %88, ptr %4, align 8, !tbaa !20
  %89 = load i8, ptr %88, align 1, !tbaa !25
  %90 = zext i8 %89 to i64
  %91 = shl nuw nsw i64 %90, 8
  %92 = or disjoint i64 %91, %86
  store i64 %92, ptr %87, align 8, !tbaa !56
  %93 = getelementptr inbounds nuw i8, ptr %64, i64 6
  store ptr %93, ptr %4, align 8, !tbaa !20
  %94 = load i8, ptr %93, align 1, !tbaa !25
  %95 = zext i8 %94 to i64
  %96 = shl nuw nsw i64 %95, 16
  %97 = or disjoint i64 %96, %92
  store i64 %97, ptr %87, align 8, !tbaa !56
  %98 = getelementptr inbounds nuw i8, ptr %64, i64 7
  store ptr %98, ptr %4, align 8, !tbaa !20
  %99 = load i8, ptr %98, align 1, !tbaa !25
  %100 = zext i8 %99 to i64
  %101 = shl nuw nsw i64 %100, 24
  %102 = or disjoint i64 %101, %97
  store i64 %102, ptr %87, align 8, !tbaa !56
  br label %.loopexit

103:                                              ; preds = %63
  %104 = getelementptr inbounds nuw i8, ptr %1, i64 24
  store i64 0, ptr %104, align 8, !tbaa !56
  %105 = getelementptr inbounds nuw i8, ptr %64, i64 12
  br label %106

106:                                              ; preds = %103, %106
  %.036 = phi i64 [ 0, %103 ], [ %114, %106 ]
  %107 = phi i64 [ 0, %103 ], [ %113, %106 ]
  %108 = phi ptr [ %105, %103 ], [ %110, %106 ]
  %109 = shl i64 %107, 8
  %110 = getelementptr inbounds i8, ptr %108, i64 -1
  store ptr %110, ptr %4, align 8, !tbaa !20
  %111 = load i8, ptr %110, align 1, !tbaa !25
  %112 = zext i8 %111 to i64
  %113 = or disjoint i64 %109, %112
  store i64 %113, ptr %104, align 8, !tbaa !56
  %114 = add nuw nsw i64 %.036, 1
  %exitcond37.not = icmp eq i64 %114, 8
  br i1 %exitcond37.not, label %.loopexit, label %106, !llvm.loop !59

115:                                              ; preds = %63
  %116 = load i8, ptr %83, align 1, !tbaa !25
  %117 = zext i8 %116 to i64
  %118 = getelementptr inbounds nuw i8, ptr %1, i64 24
  store i64 %117, ptr %118, align 8, !tbaa !56
  %119 = getelementptr inbounds nuw i8, ptr %64, i64 5
  store ptr %119, ptr %4, align 8, !tbaa !20
  %120 = load i8, ptr %119, align 1, !tbaa !25
  %121 = zext i8 %120 to i64
  %122 = shl nuw nsw i64 %121, 8
  %123 = or disjoint i64 %122, %117
  store i64 %123, ptr %118, align 8, !tbaa !56
  br label %.loopexit

.loopexit:                                        ; preds = %106, %84, %115, %63, %3
  ret i32 0
}